; Function Attrs: mustprogress nounwind uwtable
define void @_ZN3g2o17JacobianWorkspaceD2Ev(ptr noundef nonnull readonly align 8 captures(none) dereferenceable(32) %0) unnamed_addr #5 align 2 personality ptr @__gxx_personality_v0 {
  %2 = load ptr, ptr %0, align 8, !tbaa !15
  %3 = getelementptr inbounds nuw i8, ptr %0, i64 8
  %4 = load ptr, ptr %3, align 8, !tbaa !16
  %.not4.i.i.i.i = icmp eq ptr %2, %4
  br i1 %.not4.i.i.i.i, label %_ZSt8_DestroyIPN5Eigen6MatrixIdLin1ELi1ELi0ELin1ELi1EEES2_EvT_S4_RSaIT0_E.exit.i, label %.lr.ph.i.i.i.i

.lr.ph.i.i.i.i:                                   ; preds = %1, %.lr.ph.i.i.i.i
  %.05.i.i.i.i = phi ptr [ %6, %.lr.ph.i.i.i.i ], [ %2, %1 ]
  %5 = load ptr, ptr %.05.i.i.i.i, align 8, !tbaa !17
  tail call void @free(ptr noundef %5) #23
  %6 = getelementptr inbounds nuw i8, ptr %.05.i.i.i.i, i64 16
  %.not.i.i.i.i = icmp eq ptr %6, %4
  br i1 %.not.i.i.i.i, label %_ZSt8_DestroyIPN5Eigen6MatrixIdLin1ELi1ELi0ELin1ELi1EEES2_EvT_S4_RSaIT0_E.exitthread-pre-split.i, label %.lr.ph.i.i.i.i, !llvm.loop !21

_ZSt8_DestroyIPN5Eigen6MatrixIdLin1ELi1ELi0ELin1ELi1EEES2_EvT_S4_RSaIT0_E.exitthread-pre-split.i: ; preds = %.lr.ph.i.i.i.i
  %.pr.i = load ptr, ptr %0, align 8, !tbaa !15
  br label %_ZSt8_DestroyIPN5Eigen6MatrixIdLin1ELi1ELi0ELin1ELi1EEES2_EvT_S4_RSaIT0_E.exit.i

_ZSt8_DestroyIPN5Eigen6MatrixIdLin1ELi1ELi0ELin1ELi1EEES2_EvT_S4_RSaIT0_E.exit.i: ; preds = %_ZSt8_DestroyIPN5Eigen6MatrixIdLin1ELi1ELi0ELin1ELi1EEES2_EvT_S4_RSaIT0_E.exitthread-pre-split.i, %1
  %7 = phi ptr [ %.pr.i, %_ZSt8_DestroyIPN5Eigen6MatrixIdLin1ELi1ELi0ELin1ELi1EEES2_EvT_S4_RSaIT0_E.exitthread-pre-split.i ], [ %2, %1 ]
  %.not.i.i.i = icmp eq ptr %7, null
  br i1 %.not.i.i.i, label %_ZNSt6vectorIN5Eigen6MatrixIdLin1ELi1ELi0ELin1ELi1EEESaIS2_EED2Ev.exit, label %8

8:                                                ; preds = %_ZSt8_DestroyIPN5Eigen6MatrixIdLin1ELi1ELi0ELin1ELi1EEES2_EvT_S4_RSaIT0_E.exit.i
  %9 = getelementptr inbounds nuw i8, ptr %0, i64 16
  %10 = load ptr, ptr %9, align 8, !tbaa !23
  %11 = ptrtoint ptr %10 to i64
  %12 = ptrtoint ptr %7 to i64
  %13 = sub i64 %11, %12
  tail call void @_ZdlPvm(ptr noundef nonnull %7, i64 noundef %13) #24
  br label %_ZNSt6vectorIN5Eigen6MatrixIdLin1ELi1ELi0ELin1ELi1EEESaIS2_EED2Ev.exit

_ZNSt6vectorIN5Eigen6MatrixIdLin1ELi1ELi0ELin1ELi1EEESaIS2_EED2Ev.exit: ; preds = %_ZSt8_DestroyIPN5Eigen6MatrixIdLin1ELi1ELi0ELin1ELi1EEES2_EvT_S4_RSaIT0_E.exit.i, %8
  ret void
}